target datalayout = "e-m:e-p270:32:32-p271:32:32-p272:64:64-i64:64-i128:128-f80:128-n8:16:32:64-S128"
target triple = "x86_64-pc-linux-gnu"

%struct.RComplex = type { %struct.RBasic, i64, i64 }
%struct.RBasic = type { i64, i64 }

; Function Attrs: nounwind sspstrong uwtable
define internal i64 @nucomp_rect(i64 noundef %0) #0 {
  %2 = alloca i64, align 8
  %3 = alloca ptr, align 8
  store i64 %0, ptr %2, align 8, !tbaa !13
  call void @llvm.lifetime.start.p0(i64 8, ptr %3) #23
  %4 = load i64, ptr %2, align 8, !tbaa !13
  %5 = inttoptr i64 %4 to ptr
  store ptr %5, ptr %3, align 8, !tbaa !16
  %6 = load ptr, ptr %3, align 8, !tbaa !16
  %7 = getelementptr inbounds nuw %struct.RComplex, ptr %6, i32 0, i32 1
  %8 = load i64, ptr %7, align 8, !tbaa !19
  %9 = load ptr, ptr %3, align 8, !tbaa !16
  %10 = getelementptr inbounds nuw %struct.RComplex, ptr %9, i32 0, i32 2
  %11 = load i64, ptr %10, align 8, !tbaa !22
  %12 = call i64 @rb_assoc_new(i64 noundef %8, i64 noundef %11)
  call void @llvm.lifetime.end.p0(i64 8, ptr %3) #23
  ret i64 %12
}